target datalayout = "e-m:e-p270:32:32-p271:32:32-p272:64:64-i64:64-i128:128-f80:128-n8:16:32:64-S128"
target triple = "x86_64-pc-linux-gnu"

%struct.gen_ctx_st = type { ptr, ptr, i32, i32, ptr, ptr, i32, ptr, ptr, ptr }

@.str.23 = private unnamed_addr constant [35 x i8] c"../openssl/test/radix/quic_tests.c\00", align 1
@.str.27 = private unnamed_addr constant [14 x i8] c"hf_select_ssl\00", align 1
@.str.36 = private unnamed_addr constant [9 x i8] c"hf_write\00", align 1
@.str.153 = private unnamed_addr constant [3 x i8] c"C0\00", align 1
@.str.166 = private unnamed_addr constant [6 x i8] c"extra\00", align 1
@.str.181 = private unnamed_addr constant [9 x i8] c"hf_sleep\00", align 1

; Function Attrs: nounwind uwtable
define internal void @opgen_set_line(ptr noundef %0, ptr noundef %1, i32 noundef %2) #0 {
  %4 = alloca ptr, align 8
  %5 = alloca ptr, align 8
  %6 = alloca i32, align 4
  store ptr %0, ptr %4, align 8, !tbaa !34
  store ptr %1, ptr %5, align 8, !tbaa !4
  store i32 %2, ptr %6, align 4, !tbaa !9
  %7 = load ptr, ptr %5, align 8, !tbaa !4
  %8 = load ptr, ptr %4, align 8, !tbaa !34
  %9 = getelementptr inbounds nuw %struct.gen_ctx_st, ptr %8, i32 0, i32 1
  store ptr %7, ptr %9, align 8, !tbaa !38
  %10 = load i32, ptr %6, align 4, !tbaa !9
  %11 = load ptr, ptr %4, align 8, !tbaa !34
  %12 = getelementptr inbounds nuw %struct.gen_ctx_st, ptr %11, i32 0, i32 3
  store i32 %10, ptr %12, align 4, !tbaa !40
  ret void
}

; Function Attrs: nounwind uwtable
define internal void @script_gen_ssl_poll_child(ptr noundef %0) #0 {
  %2 = alloca ptr, align 8
  store ptr %0, ptr %2, align 8, !tbaa !34
  %3 = load ptr, ptr %2, align 8, !tbaa !34
  call void @opgen_set_line(ptr noundef %3, ptr noundef @.str.23, i32 noundef 67)
  %4 = load ptr, ptr %2, align 8, !tbaa !34
  call void @opgen_PUSH_U64(ptr noundef %4, i64 noundef 100)
  %5 = load ptr, ptr %2, align 8, !tbaa !34
  call void @opgen_set_line(ptr noundef %5, ptr noundef @.str.23, i32 noundef 67)
  %6 = load ptr, ptr %2, align 8, !tbaa !34
  call void @opgen_FUNC(ptr noundef %6, ptr noundef @hf_sleep, ptr noundef @.str.181)
  %7 = load ptr, ptr %2, align 8, !tbaa !34
  call void @opgen_set_line(ptr noundef %7, ptr noundef @.str.23, i32 noundef 68)
  %8 = load ptr, ptr %2, align 8, !tbaa !34
  call void @opgen_PUSH_U64(ptr noundef %8, i64 noundef 0)
  %9 = load ptr, ptr %2, align 8, !tbaa !34
  call void @opgen_set_line(ptr noundef %9, ptr noundef @.str.23, i32 noundef 68)
  %10 = load ptr, ptr %2, align 8, !tbaa !34
  call void @opgen_PUSH_PZ(ptr noundef %10, ptr noundef @.str.153)
  %11 = load ptr, ptr %2, align 8, !tbaa !34
  call void @opgen_set_line(ptr noundef %11, ptr noundef @.str.23, i32 noundef 68)
  %12 = load ptr, ptr %2, align 8, !tbaa !34
  call void @opgen_FUNC(ptr noundef %12, ptr noundef @hf_select_ssl, ptr noundef @.str.27)
  %13 = load ptr, ptr %2, align 8, !tbaa !34
  call void @opgen_set_line(ptr noundef %13, ptr noundef @.str.23, i32 noundef 68)
  %14 = load ptr, ptr %2, align 8, !tbaa !34
  call void @opgen_PUSH_P(ptr noundef %14, ptr noundef @.str.166)
  %15 = load ptr, ptr %2, align 8, !tbaa !34
  call void @opgen_set_line(ptr noundef %15, ptr noundef @.str.23, i32 noundef 68)
  %16 = load ptr, ptr %2, align 8, !tbaa !34
  call void @opgen_PUSH_SIZE(ptr noundef %16, i64 noundef 6)
  %17 = load ptr, ptr %2, align 8, !tbaa !34
  call void @opgen_set_line(ptr noundef %17, ptr noundef @.str.23, i32 noundef 68)
  %18 = load ptr, ptr %2, align 8, !tbaa !34
  call void @opgen_FUNC(ptr noundef %18, ptr noundef @hf_write, ptr noundef @.str.36)
  ret void
}