; Function Attrs: nounwind uwtable
define internal void @script_gen_ssl_poll_child(ptr noundef captures(none) initializes((8, 16), (20, 24)) %0) #1 {
  %2 = getelementptr inbounds nuw i8, ptr %0, i64 8
  store ptr @.str.23, ptr %2, align 8, !tbaa !104
  %3 = getelementptr inbounds nuw i8, ptr %0, i64 20
  store i32 67, ptr %3, align 4, !tbaa !105
  tail call fastcc void @opgen_PUSH_U64(ptr noundef %0, i64 noundef 100)
  store ptr @.str.23, ptr %2, align 8, !tbaa !104
  store i32 67, ptr %3, align 4, !tbaa !105
  tail call fastcc void @opgen_FUNC(ptr noundef %0, ptr noundef nonnull @hf_sleep, ptr noundef nonnull @.str.181)
  store ptr @.str.23, ptr %2, align 8, !tbaa !104
  store i32 68, ptr %3, align 4, !tbaa !105
  tail call fastcc void @opgen_PUSH_U64(ptr noundef %0, i64 noundef 0)
  store ptr @.str.23, ptr %2, align 8, !tbaa !104
  store i32 68, ptr %3, align 4, !tbaa !105
  tail call fastcc void @opgen_PUSH_PZ(ptr noundef %0, ptr noundef nonnull @.str.153)
  store ptr @.str.23, ptr %2, align 8, !tbaa !104
  store i32 68, ptr %3, align 4, !tbaa !105
  tail call fastcc void @opgen_FUNC(ptr noundef %0, ptr noundef nonnull @hf_select_ssl, ptr noundef nonnull @.str.27)
  store ptr @.str.23, ptr %2, align 8, !tbaa !104
  store i32 68, ptr %3, align 4, !tbaa !105
  tail call fastcc void @opgen_PUSH_P(ptr noundef %0, ptr noundef nonnull @.str.166)
  store ptr @.str.23, ptr %2, align 8, !tbaa !104
  store i32 68, ptr %3, align 4, !tbaa !105
  tail call fastcc void @opgen_PUSH_SIZE(ptr noundef %0, i64 noundef 6)
  store ptr @.str.23, ptr %2, align 8, !tbaa !104
  store i32 68, ptr %3, align 4, !tbaa !105
  tail call fastcc void @opgen_FUNC(ptr noundef %0, ptr noundef nonnull @hf_write, ptr noundef nonnull @.str.36)
  ret void
}